(dp0
(S'0010000001'
p1
I1
tp2
F16.842332885486986
s(S'0000010001'
p3
I1
tp4
F15.731401647792307
s(S'1000000101'
p5
I0
tp6
F5.1024584652453076
s(S'1000000001'
p7
I0
tp8
F9.052615769020399
s(S'0000000101'
p9
I0
tp10
F18.401406086521934
s(S'0000001001'
p11
I0
tp12
F18.87548251237049
s(S'0100000001'
p13
I1
tp14
F15.409335258168753
s(S'0010000001'
p15
I2
tp16
F17.038766767778508
s(S'0000000000'
p17
I2
tp18
F-27.36578090896108
s(S'0001000001'
p19
I0
tp20
F19.429821448566248
s(S'1000000001'
p21
I1
tp22
F11.237644628877943
s(S'0000000001'
p23
I2
tp24
F13.75317711490319
s(S'0000000101'
p25
I1
tp26
F10.079953603197088
s(S'0000010001'
p27
I2
tp28
F17.049466224472525
s(S'0000001001'
p29
I1
tp30
F14.537135363269115
s(S'0000100001'
p31
I0
tp32
F18.91973239069995
s(S'0001000001'
p33
I1
tp34
F17.276185432661446
s(S'0100000001'
p35
I2
tp36
F14.673138442089943
s(S'1000000001'
p37
I2
tp38
F10.421328508661311
s(S'0000001001'
p39
I2
tp40
F14.797715538363835
s(S'0000000001'
p41
I1
tp42
F9.138869224162278
s(S'0000000101'
p43
I2
tp44
F12.623134538821178
s(S'0000100001'
p45
I1
tp46
F17.797587465343856
s(S'0000000000'
p47
I0
tp48
F-25.28058653927674
s(S'0010000001'
p49
I0
tp50
F19.25359815622389
s(S'0001000001'
p51
I2
tp52
F17.460753013219072
s(S'0000010001'
p53
I0
tp54
F18.44205446321663
s(S'1000000101'
p55
I1
tp56
I2
s(S'0000000001'
p57
I0
tp58
F10.382600007642639
s(S'0000100001'
p59
I2
tp60
F17.38601264204568
s(S'0000000000'
p61
I1
tp62
F10.507237913551602
s(S'0100000001'
p63
I0
tp64
F15.54056104039663
s.