(dp0
(S'0010000001'
p1
I1
tp2
F17.050682918916117
s(S'0000010001'
p3
I1
tp4
F16.073538332699325
s(S'1100000001'
p5
I2
tp6
I2
s(S'1000000101'
p7
I0
tp8
F5.1024584652453076
s(S'1000000001'
p9
I0
tp10
F14.42149265980757
s(S'0000000101'
p11
I0
tp12
F18.463312859113426
s(S'0000001001'
p13
I0
tp14
F19.563351519910928
s(S'0100000001'
p15
I1
tp16
F14.338231468186049
s(S'0010000001'
p17
I2
tp18
F17.035381787810266
s(S'0000000000'
p19
I2
tp20
F-39.60444469377912
s(S'0001000001'
p21
I0
tp22
F19.175525451793604
s(S'1000000001'
p23
I1
tp24
F9.861825893814093
s(S'0000000001'
p25
I2
tp26
F5.89217460291354
s(S'0000000101'
p27
I1
tp28
F13.42030365968952
s(S'0000010001'
p29
I2
tp30
F17.049466224472525
s(S'0000001001'
p31
I1
tp32
F14.537135363269115
s(S'0000100001'
p33
I0
tp34
F18.940084982105923
s(S'0001000001'
p35
I1
tp36
F17.27709348593561
s(S'0100000001'
p37
I2
tp38
F14.77895543440589
s(S'1000000001'
p39
I2
tp40
F12.46908232722377
s(S'0000001001'
p41
I2
tp42
F14.797715538363835
s(S'0000000001'
p43
I1
tp44
F8.326903370458085
s(S'0000000101'
p45
I2
tp46
F13.472214257515354
s(S'0000100001'
p47
I1
tp48
F17.383815032068668
s(S'0000000000'
p49
I0
tp50
F-26.019891097384335
s(S'0010000001'
p51
I0
tp52
F18.95345037319266
s(S'0001000001'
p53
I2
tp54
F17.39258201249001
s(S'0000010001'
p55
I0
tp56
F17.89902405611701
s(S'1000000101'
p57
I1
tp58
I2
s(S'0000000001'
p59
I0
tp60
F6.67388309053912
s(S'0000100001'
p61
I2
tp62
F17.74036931138912
s(S'0000000000'
p63
I1
tp64
F-32.14580220389991
s(S'0100000001'
p65
I0
tp66
F16.93945778236283
s.